TN:
SF:/home/kashif/SDR/week6/Human-Obstacle-Detector-and-Tracker/test/test_perception_task.cpp
FN:13,_ZN18PerceptionTaskTest5SetUpEv
FN:32,_ZN18PerceptionTaskTest8TearDownEv
FN:38,_ZN18PerceptionTaskTest15createTestFrameERKN2cv5Size_IiEEb
FN:56,_ZN39PerceptionTaskTest_InvalidPathTest_TestD2Ev
FN:56,_ZN39PerceptionTaskTest_InvalidPathTest_TestC2Ev
FN:56,_ZN39PerceptionTaskTest_InvalidPathTest_Test8TestBodyEv
FN:56,_ZN39PerceptionTaskTest_InvalidPathTest_TestD0Ev
FN:63,_ZN38PerceptionTaskTest_BasicFrameTest_Test8TestBodyEv
FN:63,_ZN38PerceptionTaskTest_BasicFrameTest_TestD2Ev
FN:63,_ZN38PerceptionTaskTest_BasicFrameTest_TestC2Ev
FN:63,_ZN38PerceptionTaskTest_BasicFrameTest_TestD0Ev
FN:75,_ZN43PerceptionTaskTest_DifferentFrameSizes_TestD2Ev
FN:75,_ZN43PerceptionTaskTest_DifferentFrameSizes_TestD0Ev
FN:75,_ZN43PerceptionTaskTest_DifferentFrameSizes_TestC2Ev
FN:75,_ZN43PerceptionTaskTest_DifferentFrameSizes_Test8TestBodyEv
FN:95,_ZN41PerceptionTaskTest_ConsecutiveFrames_TestC2Ev
FN:95,_ZN41PerceptionTaskTest_ConsecutiveFrames_Test8TestBodyEv
FN:95,_ZN41PerceptionTaskTest_ConsecutiveFrames_TestD2Ev
FN:95,_ZN41PerceptionTaskTest_ConsecutiveFrames_TestD0Ev
FN:111,_ZN39PerceptionTaskTest_PerformanceTest_Test8TestBodyEv
FN:111,_ZN39PerceptionTaskTest_PerformanceTest_TestD2Ev
FN:111,_ZN39PerceptionTaskTest_PerformanceTest_TestD0Ev
FN:111,_ZN39PerceptionTaskTest_PerformanceTest_TestC2Ev
FN:134,_ZN38PerceptionTaskTest_EmptyFrameTest_TestD2Ev
FN:134,_ZN38PerceptionTaskTest_EmptyFrameTest_TestD0Ev
FN:134,_ZN38PerceptionTaskTest_EmptyFrameTest_Test8TestBodyEv
FN:134,_ZN38PerceptionTaskTest_EmptyFrameTest_TestC2Ev
FNDA:1,_ZN38PerceptionTaskTest_EmptyFrameTest_TestD0Ev
FNDA:1,_ZN38PerceptionTaskTest_EmptyFrameTest_Test8TestBodyEv
FNDA:1,_ZN39PerceptionTaskTest_PerformanceTest_TestC2Ev
FNDA:1,_ZN41PerceptionTaskTest_ConsecutiveFrames_TestD0Ev
FNDA:1,_ZN41PerceptionTaskTest_ConsecutiveFrames_TestD2Ev
FNDA:6,_ZN18PerceptionTaskTest5SetUpEv
FNDA:1,_ZN39PerceptionTaskTest_InvalidPathTest_TestC2Ev
FNDA:1,_ZN41PerceptionTaskTest_ConsecutiveFrames_Test8TestBodyEv
FNDA:0,_ZN18PerceptionTaskTest15createTestFrameERKN2cv5Size_IiEEb
FNDA:1,_ZN39PerceptionTaskTest_PerformanceTest_TestD0Ev
FNDA:1,_ZN39PerceptionTaskTest_InvalidPathTest_TestD2Ev
FNDA:1,_ZN39PerceptionTaskTest_PerformanceTest_TestD2Ev
FNDA:6,_ZN18PerceptionTaskTest8TearDownEv
FNDA:1,_ZN43PerceptionTaskTest_DifferentFrameSizes_TestD2Ev
FNDA:1,_ZN38PerceptionTaskTest_EmptyFrameTest_TestD2Ev
FNDA:1,_ZN41PerceptionTaskTest_ConsecutiveFrames_TestC2Ev
FNDA:1,_ZN39PerceptionTaskTest_PerformanceTest_Test8TestBodyEv
FNDA:1,_ZN38PerceptionTaskTest_BasicFrameTest_TestD0Ev
FNDA:1,_ZN43PerceptionTaskTest_DifferentFrameSizes_Test8TestBodyEv
FNDA:1,_ZN43PerceptionTaskTest_DifferentFrameSizes_TestC2Ev
FNDA:1,_ZN39PerceptionTaskTest_InvalidPathTest_TestD0Ev
FNDA:1,_ZN43PerceptionTaskTest_DifferentFrameSizes_TestD0Ev
FNDA:1,_ZN38PerceptionTaskTest_BasicFrameTest_TestC2Ev
FNDA:1,_ZN38PerceptionTaskTest_BasicFrameTest_TestD2Ev
FNDA:1,_ZN38PerceptionTaskTest_BasicFrameTest_Test8TestBodyEv
FNDA:1,_ZN39PerceptionTaskTest_InvalidPathTest_Test8TestBodyEv
FNDA:1,_ZN38PerceptionTaskTest_EmptyFrameTest_TestC2Ev
FNF:27
FNH:26
DA:13,6
DA:15,6
DA:16,6
DA:17,6
DA:19,6
DA:20,6
DA:21,6
DA:22,6
DA:25,6
DA:26,6
DA:27,6
DA:28,6
DA:29,6
DA:30,6
DA:32,6
DA:33,6
DA:34,6
DA:35,6
DA:38,0
DA:39,0
DA:40,0
DA:42,0
DA:43,0
DA:44,0
DA:45,0
DA:46,0
DA:48,0
DA:51,0
DA:52,0
DA:56,4
DA:57,8
DA:59,1
DA:60,1
DA:63,4
DA:64,1
DA:65,1
DA:68,0
DA:69,0
DA:71,0
DA:72,0
DA:75,4
DA:76,1
DA:77,1
DA:84,0
DA:86,0
DA:87,0
DA:88,0
DA:90,0
DA:91,0
DA:92,0
DA:95,4
DA:96,1
DA:97,1
DA:100,0
DA:101,0
DA:103,0
DA:104,0
DA:106,0
DA:108,0
DA:111,4
DA:112,1
DA:113,1
DA:116,0
DA:119,0
DA:122,0
DA:123,0
DA:124,0
DA:126,0
DA:127,0
DA:130,0
DA:131,0
DA:134,4
DA:135,1
DA:136,1
DA:139,0
DA:140,0
DA:142,0
DA:143,0
LF:78
LH:37
end_of_record
